target datalayout = "e-m:e-p270:32:32-p271:32:32-p272:64:64-i64:64-i128:128-f80:128-n8:16:32:64-S128"
target triple = "x86_64-pc-linux-gnu"

%struct.AVFormatContext = type { ptr, ptr, ptr, ptr, ptr, i32, i32, ptr, i32, ptr, i32, ptr, ptr, i64, i64, i64, i32, i32, i32, i64, i64, ptr, i32, i32, ptr, i32, i32, i32, i32, ptr, i64, i32, i32, %struct.AVIOInterruptCB, i32, i32, i32, i32, i64, i32, i32, i32, i32, i32, i32, i32, i32, i32, i32, i32, i32, i64, i32, i32, i32, i32, i32, ptr, ptr, ptr, ptr, i32, ptr, ptr, ptr, ptr, i32, ptr, ptr, i64, ptr, ptr, ptr, i64 }
%struct.AVIOInterruptCB = type { ptr, ptr }
%struct.DHAVContext = type { i32, i32, i32, i32, i32, i32, i32, i32, i32, i32, i32, i32, i32, i32, i64, i64, i32, i32 }

@sample_rates = internal constant [13 x i32] [i32 8000, i32 4000, i32 8000, i32 11025, i32 16000, i32 20000, i32 22050, i32 32000, i32 44100, i32 48000, i32 96000, i32 192000, i32 64000], align 16
@.str.5 = private unnamed_addr constant [44 x i8] c"Unknown type: %X, skipping rest of header.\0A\00", align 1

; Function Attrs: nounwind uwtable
define internal i32 @parse_ext(ptr noundef %0, i32 noundef %1) #0 {
  %3 = alloca i32, align 4
  %4 = alloca ptr, align 8
  %5 = alloca i32, align 4
  %6 = alloca ptr, align 8
  %7 = alloca i64, align 8
  %8 = alloca i32, align 4
  %9 = alloca i32, align 4
  %10 = alloca i32, align 4
  store ptr %0, ptr %4, align 8, !tbaa !14
  store i32 %1, ptr %5, align 4, !tbaa !34
  call void @llvm.lifetime.start.p0(i64 8, ptr %6) #7
  %11 = load ptr, ptr %4, align 8, !tbaa !14
  %12 = getelementptr inbounds nuw %struct.AVFormatContext, ptr %11, i32 0, i32 3
  %13 = load ptr, ptr %12, align 8, !tbaa !16
  store ptr %13, ptr %6, align 8, !tbaa !31
  call void @llvm.lifetime.start.p0(i64 8, ptr %7) #7
  store i64 0, ptr %7, align 8, !tbaa !87
  br label %14

14:                                               ; preds = %196, %2
  %15 = load i32, ptr %5, align 4, !tbaa !34
  %16 = icmp sgt i32 %15, 0
  br i1 %16, label %17, label %197

17:                                               ; preds = %14
  call void @llvm.lifetime.start.p0(i64 4, ptr %8) #7
  %18 = load ptr, ptr %4, align 8, !tbaa !14
  %19 = getelementptr inbounds nuw %struct.AVFormatContext, ptr %18, i32 0, i32 4
  %20 = load ptr, ptr %19, align 8, !tbaa !33
  %21 = call i32 @avio_r8(ptr noundef %20)
  store i32 %21, ptr %8, align 4, !tbaa !34
  call void @llvm.lifetime.start.p0(i64 4, ptr %9) #7
  %22 = load i32, ptr %8, align 4, !tbaa !34
  switch i32 %22, label %177 [
    i32 128, label %23
    i32 129, label %44
    i32 130, label %63
    i32 131, label %82
    i32 136, label %115
    i32 140, label %122
    i32 145, label %163
    i32 146, label %163
    i32 147, label %163
    i32 149, label %163
    i32 154, label %163
    i32 155, label %163
    i32 179, label %163
    i32 132, label %170
    i32 133, label %170
    i32 139, label %170
    i32 148, label %170
    i32 150, label %170
    i32 160, label %170
    i32 178, label %170
    i32 180, label %170
  ]

23:                                               ; preds = %17
  %24 = load ptr, ptr %4, align 8, !tbaa !14
  %25 = getelementptr inbounds nuw %struct.AVFormatContext, ptr %24, i32 0, i32 4
  %26 = load ptr, ptr %25, align 8, !tbaa !33
  %27 = call i64 @avio_skip(ptr noundef %26, i64 noundef 1)
  store i64 %27, ptr %7, align 8, !tbaa !87
  %28 = load ptr, ptr %4, align 8, !tbaa !14
  %29 = getelementptr inbounds nuw %struct.AVFormatContext, ptr %28, i32 0, i32 4
  %30 = load ptr, ptr %29, align 8, !tbaa !33
  %31 = call i32 @avio_r8(ptr noundef %30)
  %32 = mul nsw i32 8, %31
  %33 = load ptr, ptr %6, align 8, !tbaa !31
  %34 = getelementptr inbounds nuw %struct.DHAVContext, ptr %33, i32 0, i32 7
  store i32 %32, ptr %34, align 4, !tbaa !64
  %35 = load ptr, ptr %4, align 8, !tbaa !14
  %36 = getelementptr inbounds nuw %struct.AVFormatContext, ptr %35, i32 0, i32 4
  %37 = load ptr, ptr %36, align 8, !tbaa !33
  %38 = call i32 @avio_r8(ptr noundef %37)
  %39 = mul nsw i32 8, %38
  %40 = load ptr, ptr %6, align 8, !tbaa !31
  %41 = getelementptr inbounds nuw %struct.DHAVContext, ptr %40, i32 0, i32 8
  store i32 %39, ptr %41, align 8, !tbaa !66
  %42 = load i32, ptr %5, align 4, !tbaa !34
  %43 = sub nsw i32 %42, 4
  store i32 %43, ptr %5, align 4, !tbaa !34
  br label %187

44:                                               ; preds = %17
  %45 = load ptr, ptr %4, align 8, !tbaa !14
  %46 = getelementptr inbounds nuw %struct.AVFormatContext, ptr %45, i32 0, i32 4
  %47 = load ptr, ptr %46, align 8, !tbaa !33
  %48 = call i64 @avio_skip(ptr noundef %47, i64 noundef 1)
  store i64 %48, ptr %7, align 8, !tbaa !87
  %49 = load ptr, ptr %4, align 8, !tbaa !14
  %50 = getelementptr inbounds nuw %struct.AVFormatContext, ptr %49, i32 0, i32 4
  %51 = load ptr, ptr %50, align 8, !tbaa !33
  %52 = call i32 @avio_r8(ptr noundef %51)
  %53 = load ptr, ptr %6, align 8, !tbaa !31
  %54 = getelementptr inbounds nuw %struct.DHAVContext, ptr %53, i32 0, i32 9
  store i32 %52, ptr %54, align 4, !tbaa !61
  %55 = load ptr, ptr %4, align 8, !tbaa !14
  %56 = getelementptr inbounds nuw %struct.AVFormatContext, ptr %55, i32 0, i32 4
  %57 = load ptr, ptr %56, align 8, !tbaa !33
  %58 = call i32 @avio_r8(ptr noundef %57)
  %59 = load ptr, ptr %6, align 8, !tbaa !31
  %60 = getelementptr inbounds nuw %struct.DHAVContext, ptr %59, i32 0, i32 10
  store i32 %58, ptr %60, align 8, !tbaa !68
  %61 = load i32, ptr %5, align 4, !tbaa !34
  %62 = sub nsw i32 %61, 4
  store i32 %62, ptr %5, align 4, !tbaa !34
  br label %187

63:                                               ; preds = %17
  %64 = load ptr, ptr %4, align 8, !tbaa !14
  %65 = getelementptr inbounds nuw %struct.AVFormatContext, ptr %64, i32 0, i32 4
  %66 = load ptr, ptr %65, align 8, !tbaa !33
  %67 = call i64 @avio_skip(ptr noundef %66, i64 noundef 3)
  store i64 %67, ptr %7, align 8, !tbaa !87
  %68 = load ptr, ptr %4, align 8, !tbaa !14
  %69 = getelementptr inbounds nuw %struct.AVFormatContext, ptr %68, i32 0, i32 4
  %70 = load ptr, ptr %69, align 8, !tbaa !33
  %71 = call i32 @avio_rl16(ptr noundef %70)
  %72 = load ptr, ptr %6, align 8, !tbaa !31
  %73 = getelementptr inbounds nuw %struct.DHAVContext, ptr %72, i32 0, i32 7
  store i32 %71, ptr %73, align 4, !tbaa !64
  %74 = load ptr, ptr %4, align 8, !tbaa !14
  %75 = getelementptr inbounds nuw %struct.AVFormatContext, ptr %74, i32 0, i32 4
  %76 = load ptr, ptr %75, align 8, !tbaa !33
  %77 = call i32 @avio_rl16(ptr noundef %76)
  %78 = load ptr, ptr %6, align 8, !tbaa !31
  %79 = getelementptr inbounds nuw %struct.DHAVContext, ptr %78, i32 0, i32 8
  store i32 %77, ptr %79, align 8, !tbaa !66
  %80 = load i32, ptr %5, align 4, !tbaa !34
  %81 = sub nsw i32 %80, 8
  store i32 %81, ptr %5, align 4, !tbaa !34
  br label %187

82:                                               ; preds = %17
  %83 = load ptr, ptr %4, align 8, !tbaa !14
  %84 = getelementptr inbounds nuw %struct.AVFormatContext, ptr %83, i32 0, i32 4
  %85 = load ptr, ptr %84, align 8, !tbaa !33
  %86 = call i32 @avio_r8(ptr noundef %85)
  %87 = load ptr, ptr %6, align 8, !tbaa !31
  %88 = getelementptr inbounds nuw %struct.DHAVContext, ptr %87, i32 0, i32 11
  store i32 %86, ptr %88, align 4, !tbaa !78
  %89 = load ptr, ptr %4, align 8, !tbaa !14
  %90 = getelementptr inbounds nuw %struct.AVFormatContext, ptr %89, i32 0, i32 4
  %91 = load ptr, ptr %90, align 8, !tbaa !33
  %92 = call i32 @avio_r8(ptr noundef %91)
  %93 = load ptr, ptr %6, align 8, !tbaa !31
  %94 = getelementptr inbounds nuw %struct.DHAVContext, ptr %93, i32 0, i32 12
  store i32 %92, ptr %94, align 8, !tbaa !77
  %95 = load ptr, ptr %4, align 8, !tbaa !14
  %96 = getelementptr inbounds nuw %struct.AVFormatContext, ptr %95, i32 0, i32 4
  %97 = load ptr, ptr %96, align 8, !tbaa !33
  %98 = call i32 @avio_r8(ptr noundef %97)
  store i32 %98, ptr %9, align 4, !tbaa !34
  %99 = load i32, ptr %9, align 4, !tbaa !34
  %100 = sext i32 %99 to i64
  %101 = icmp ult i64 %100, 13
  br i1 %101, label %102, label %109

102:                                              ; preds = %82
  %103 = load i32, ptr %9, align 4, !tbaa !34
  %104 = sext i32 %103 to i64
  %105 = getelementptr inbounds [13 x i32], ptr @sample_rates, i64 0, i64 %104
  %106 = load i32, ptr %105, align 4, !tbaa !34
  %107 = load ptr, ptr %6, align 8, !tbaa !31
  %108 = getelementptr inbounds nuw %struct.DHAVContext, ptr %107, i32 0, i32 13
  store i32 %106, ptr %108, align 4, !tbaa !80
  br label %112

109:                                              ; preds = %82
  %110 = load ptr, ptr %6, align 8, !tbaa !31
  %111 = getelementptr inbounds nuw %struct.DHAVContext, ptr %110, i32 0, i32 13
  store i32 8000, ptr %111, align 4, !tbaa !80
  br label %112

112:                                              ; preds = %109, %102
  %113 = load i32, ptr %5, align 4, !tbaa !34
  %114 = sub nsw i32 %113, 4
  store i32 %114, ptr %5, align 4, !tbaa !34
  br label %187

115:                                              ; preds = %17
  %116 = load ptr, ptr %4, align 8, !tbaa !14
  %117 = getelementptr inbounds nuw %struct.AVFormatContext, ptr %116, i32 0, i32 4
  %118 = load ptr, ptr %117, align 8, !tbaa !33
  %119 = call i64 @avio_skip(ptr noundef %118, i64 noundef 7)
  store i64 %119, ptr %7, align 8, !tbaa !87
  %120 = load i32, ptr %5, align 4, !tbaa !34
  %121 = sub nsw i32 %120, 8
  store i32 %121, ptr %5, align 4, !tbaa !34
  br label %187

122:                                              ; preds = %17
  %123 = load ptr, ptr %4, align 8, !tbaa !14
  %124 = getelementptr inbounds nuw %struct.AVFormatContext, ptr %123, i32 0, i32 4
  %125 = load ptr, ptr %124, align 8, !tbaa !33
  %126 = call i64 @avio_skip(ptr noundef %125, i64 noundef 1)
  store i64 %126, ptr %7, align 8, !tbaa !87
  %127 = load ptr, ptr %4, align 8, !tbaa !14
  %128 = getelementptr inbounds nuw %struct.AVFormatContext, ptr %127, i32 0, i32 4
  %129 = load ptr, ptr %128, align 8, !tbaa !33
  %130 = call i32 @avio_r8(ptr noundef %129)
  %131 = load ptr, ptr %6, align 8, !tbaa !31
  %132 = getelementptr inbounds nuw %struct.DHAVContext, ptr %131, i32 0, i32 11
  store i32 %130, ptr %132, align 4, !tbaa !78
  %133 = load ptr, ptr %4, align 8, !tbaa !14
  %134 = getelementptr inbounds nuw %struct.AVFormatContext, ptr %133, i32 0, i32 4
  %135 = load ptr, ptr %134, align 8, !tbaa !33
  %136 = call i32 @avio_r8(ptr noundef %135)
  %137 = load ptr, ptr %6, align 8, !tbaa !31
  %138 = getelementptr inbounds nuw %struct.DHAVContext, ptr %137, i32 0, i32 12
  store i32 %136, ptr %138, align 8, !tbaa !77
  %139 = load ptr, ptr %4, align 8, !tbaa !14
  %140 = getelementptr inbounds nuw %struct.AVFormatContext, ptr %139, i32 0, i32 4
  %141 = load ptr, ptr %140, align 8, !tbaa !33
  %142 = call i32 @avio_r8(ptr noundef %141)
  store i32 %142, ptr %9, align 4, !tbaa !34
  %143 = load i32, ptr %9, align 4, !tbaa !34
  %144 = sext i32 %143 to i64
  %145 = icmp ult i64 %144, 13
  br i1 %145, label %146, label %153

146:                                              ; preds = %122
  %147 = load i32, ptr %9, align 4, !tbaa !34
  %148 = sext i32 %147 to i64
  %149 = getelementptr inbounds [13 x i32], ptr @sample_rates, i64 0, i64 %148
  %150 = load i32, ptr %149, align 4, !tbaa !34
  %151 = load ptr, ptr %6, align 8, !tbaa !31
  %152 = getelementptr inbounds nuw %struct.DHAVContext, ptr %151, i32 0, i32 13
  store i32 %150, ptr %152, align 4, !tbaa !80
  br label %156

153:                                              ; preds = %122
  %154 = load ptr, ptr %6, align 8, !tbaa !31
  %155 = getelementptr inbounds nuw %struct.DHAVContext, ptr %154, i32 0, i32 13
  store i32 8000, ptr %155, align 4, !tbaa !80
  br label %156

156:                                              ; preds = %153, %146
  %157 = load ptr, ptr %4, align 8, !tbaa !14
  %158 = getelementptr inbounds nuw %struct.AVFormatContext, ptr %157, i32 0, i32 4
  %159 = load ptr, ptr %158, align 8, !tbaa !33
  %160 = call i64 @avio_skip(ptr noundef %159, i64 noundef 3)
  store i64 %160, ptr %7, align 8, !tbaa !87
  %161 = load i32, ptr %5, align 4, !tbaa !34
  %162 = sub nsw i32 %161, 8
  store i32 %162, ptr %5, align 4, !tbaa !34
  br label %187

163:                                              ; preds = %17, %17, %17, %17, %17, %17, %17
  %164 = load ptr, ptr %4, align 8, !tbaa !14
  %165 = getelementptr inbounds nuw %struct.AVFormatContext, ptr %164, i32 0, i32 4
  %166 = load ptr, ptr %165, align 8, !tbaa !33
  %167 = call i64 @avio_skip(ptr noundef %166, i64 noundef 7)
  store i64 %167, ptr %7, align 8, !tbaa !87
  %168 = load i32, ptr %5, align 4, !tbaa !34
  %169 = sub nsw i32 %168, 8
  store i32 %169, ptr %5, align 4, !tbaa !34
  br label %187

170:                                              ; preds = %17, %17, %17, %17, %17, %17, %17, %17
  %171 = load ptr, ptr %4, align 8, !tbaa !14
  %172 = getelementptr inbounds nuw %struct.AVFormatContext, ptr %171, i32 0, i32 4
  %173 = load ptr, ptr %172, align 8, !tbaa !33
  %174 = call i64 @avio_skip(ptr noundef %173, i64 noundef 3)
  store i64 %174, ptr %7, align 8, !tbaa !87
  %175 = load i32, ptr %5, align 4, !tbaa !34
  %176 = sub nsw i32 %175, 4
  store i32 %176, ptr %5, align 4, !tbaa !34
  br label %187

177:                                              ; preds = %17
  %178 = load ptr, ptr %4, align 8, !tbaa !14
  %179 = load i32, ptr %8, align 4, !tbaa !34
  call void (ptr, i32, ptr, ...) @av_log(ptr noundef %178, i32 noundef 32, ptr noundef @.str.5, i32 noundef %179)
  %180 = load ptr, ptr %4, align 8, !tbaa !14
  %181 = getelementptr inbounds nuw %struct.AVFormatContext, ptr %180, i32 0, i32 4
  %182 = load ptr, ptr %181, align 8, !tbaa !33
  %183 = load i32, ptr %5, align 4, !tbaa !34
  %184 = sub nsw i32 %183, 1
  %185 = sext i32 %184 to i64
  %186 = call i64 @avio_skip(ptr noundef %182, i64 noundef %185)
  store i64 %186, ptr %7, align 8, !tbaa !87
  store i32 0, ptr %5, align 4, !tbaa !34
  br label %187

187:                                              ; preds = %177, %170, %163, %156, %115, %112, %63, %44, %23
  %188 = load i64, ptr %7, align 8, !tbaa !87
  %189 = icmp slt i64 %188, 0
  br i1 %189, label %190, label %193

190:                                              ; preds = %187
  %191 = load i64, ptr %7, align 8, !tbaa !87
  %192 = trunc i64 %191 to i32
  store i32 %192, ptr %3, align 4
  store i32 1, ptr %10, align 4
  br label %194

193:                                              ; preds = %187
  store i32 0, ptr %10, align 4
  br label %194

194:                                              ; preds = %193, %190
  call void @llvm.lifetime.end.p0(i64 4, ptr %9) #7
  call void @llvm.lifetime.end.p0(i64 4, ptr %8) #7
  %195 = load i32, ptr %10, align 4
  switch i32 %195, label %198 [
    i32 0, label %196
  ]

196:                                              ; preds = %194
  br label %14, !llvm.loop !126

197:                                              ; preds = %14
  store i32 0, ptr %3, align 4
  store i32 1, ptr %10, align 4
  br label %198

198:                                              ; preds = %197, %194
  call void @llvm.lifetime.end.p0(i64 8, ptr %7) #7
  call void @llvm.lifetime.end.p0(i64 8, ptr %6) #7
  %199 = load i32, ptr %3, align 4
  ret i32 %199
}