; Function Attrs: nounwind uwtable
define internal fastcc i32 @parse_ext(ptr noundef %0, i32 noundef %1) unnamed_addr #1 {
  %3 = getelementptr inbounds nuw i8, ptr %0, i64 24
  %4 = load ptr, ptr %3, align 8, !tbaa !12
  %5 = getelementptr inbounds nuw i8, ptr %0, i64 32
  %6 = getelementptr inbounds nuw i8, ptr %4, i64 44
  %7 = getelementptr inbounds nuw i8, ptr %4, i64 48
  %8 = getelementptr inbounds nuw i8, ptr %4, i64 52
  %9 = getelementptr inbounds nuw i8, ptr %4, i64 28
  %10 = getelementptr inbounds nuw i8, ptr %4, i64 32
  %11 = getelementptr inbounds nuw i8, ptr %4, i64 36
  %12 = getelementptr inbounds nuw i8, ptr %4, i64 40
  br label %13

13:                                               ; preds = %93, %2
  %.060 = phi i32 [ %1, %2 ], [ %.161, %93 ]
  %.058 = phi i64 [ 0, %2 ], [ %.159, %93 ]
  %14 = icmp sgt i32 %.060, 0
  br i1 %14, label %15, label %.split.loop.exit

15:                                               ; preds = %13
  %16 = load ptr, ptr %5, align 8, !tbaa !27
  %17 = tail call i32 @avio_r8(ptr noundef %16) #7
  switch i32 %17, label %88 [
    i32 128, label %18
    i32 129, label %28
    i32 130, label %36
    i32 131, label %44
    i32 136, label %58
    i32 140, label %62
    i32 145, label %80
    i32 146, label %80
    i32 147, label %80
    i32 149, label %80
    i32 154, label %80
    i32 155, label %80
    i32 179, label %80
    i32 132, label %84
    i32 133, label %84
    i32 139, label %84
    i32 148, label %84
    i32 150, label %84
    i32 160, label %84
    i32 178, label %84
    i32 180, label %84
  ]

18:                                               ; preds = %15
  %19 = load ptr, ptr %5, align 8, !tbaa !27
  %20 = tail call i64 @avio_skip(ptr noundef %19, i64 noundef 1) #7
  %21 = load ptr, ptr %5, align 8, !tbaa !27
  %22 = tail call i32 @avio_r8(ptr noundef %21) #7
  %23 = shl nsw i32 %22, 3
  store i32 %23, ptr %9, align 4, !tbaa !61
  %24 = load ptr, ptr %5, align 8, !tbaa !27
  %25 = tail call i32 @avio_r8(ptr noundef %24) #7
  %26 = shl nsw i32 %25, 3
  store i32 %26, ptr %10, align 8, !tbaa !63
  %27 = add nsw i32 %.060, -4
  br label %93

28:                                               ; preds = %15
  %29 = load ptr, ptr %5, align 8, !tbaa !27
  %30 = tail call i64 @avio_skip(ptr noundef %29, i64 noundef 1) #7
  %31 = load ptr, ptr %5, align 8, !tbaa !27
  %32 = tail call i32 @avio_r8(ptr noundef %31) #7
  store i32 %32, ptr %11, align 4, !tbaa !58
  %33 = load ptr, ptr %5, align 8, !tbaa !27
  %34 = tail call i32 @avio_r8(ptr noundef %33) #7
  store i32 %34, ptr %12, align 8, !tbaa !65
  %35 = add nsw i32 %.060, -4
  br label %93

36:                                               ; preds = %15
  %37 = load ptr, ptr %5, align 8, !tbaa !27
  %38 = tail call i64 @avio_skip(ptr noundef %37, i64 noundef 3) #7
  %39 = load ptr, ptr %5, align 8, !tbaa !27
  %40 = tail call i32 @avio_rl16(ptr noundef %39) #7
  store i32 %40, ptr %9, align 4, !tbaa !61
  %41 = load ptr, ptr %5, align 8, !tbaa !27
  %42 = tail call i32 @avio_rl16(ptr noundef %41) #7
  store i32 %42, ptr %10, align 8, !tbaa !63
  %43 = add nsw i32 %.060, -8
  br label %93

44:                                               ; preds = %15
  %45 = load ptr, ptr %5, align 8, !tbaa !27
  %46 = tail call i32 @avio_r8(ptr noundef %45) #7
  store i32 %46, ptr %6, align 4, !tbaa !73
  %47 = load ptr, ptr %5, align 8, !tbaa !27
  %48 = tail call i32 @avio_r8(ptr noundef %47) #7
  store i32 %48, ptr %7, align 8, !tbaa !72
  %49 = load ptr, ptr %5, align 8, !tbaa !27
  %50 = tail call i32 @avio_r8(ptr noundef %49) #7
  %51 = icmp ult i32 %50, 13
  br i1 %51, label %52, label %56

52:                                               ; preds = %44
  %53 = zext nneg i32 %50 to i64
  %54 = getelementptr inbounds nuw [13 x i32], ptr @sample_rates, i64 0, i64 %53
  %55 = load i32, ptr %54, align 4, !tbaa !77
  br label %56

56:                                               ; preds = %44, %52
  %storemerge66 = phi i32 [ %55, %52 ], [ 8000, %44 ]
  store i32 %storemerge66, ptr %8, align 4, !tbaa !75
  %57 = add nsw i32 %.060, -4
  br label %93

58:                                               ; preds = %15
  %59 = load ptr, ptr %5, align 8, !tbaa !27
  %60 = tail call i64 @avio_skip(ptr noundef %59, i64 noundef 7) #7
  %61 = add nsw i32 %.060, -8
  br label %93

62:                                               ; preds = %15
  %63 = load ptr, ptr %5, align 8, !tbaa !27
  %64 = tail call i64 @avio_skip(ptr noundef %63, i64 noundef 1) #7
  %65 = load ptr, ptr %5, align 8, !tbaa !27
  %66 = tail call i32 @avio_r8(ptr noundef %65) #7
  store i32 %66, ptr %6, align 4, !tbaa !73
  %67 = load ptr, ptr %5, align 8, !tbaa !27
  %68 = tail call i32 @avio_r8(ptr noundef %67) #7
  store i32 %68, ptr %7, align 8, !tbaa !72
  %69 = load ptr, ptr %5, align 8, !tbaa !27
  %70 = tail call i32 @avio_r8(ptr noundef %69) #7
  %71 = icmp ult i32 %70, 13
  br i1 %71, label %72, label %76

72:                                               ; preds = %62
  %73 = zext nneg i32 %70 to i64
  %74 = getelementptr inbounds nuw [13 x i32], ptr @sample_rates, i64 0, i64 %73
  %75 = load i32, ptr %74, align 4, !tbaa !77
  br label %76

76:                                               ; preds = %62, %72
  %storemerge = phi i32 [ %75, %72 ], [ 8000, %62 ]
  store i32 %storemerge, ptr %8, align 4, !tbaa !75
  %77 = load ptr, ptr %5, align 8, !tbaa !27
  %78 = tail call i64 @avio_skip(ptr noundef %77, i64 noundef 3) #7
  %79 = add nsw i32 %.060, -8
  br label %93

80:                                               ; preds = %15, %15, %15, %15, %15, %15, %15
  %81 = load ptr, ptr %5, align 8, !tbaa !27
  %82 = tail call i64 @avio_skip(ptr noundef %81, i64 noundef 7) #7
  %83 = add nsw i32 %.060, -8
  br label %93

84:                                               ; preds = %15, %15, %15, %15, %15, %15, %15, %15
  %85 = load ptr, ptr %5, align 8, !tbaa !27
  %86 = tail call i64 @avio_skip(ptr noundef %85, i64 noundef 3) #7
  %87 = add nsw i32 %.060, -4
  br label %93

88:                                               ; preds = %15
  tail call void (ptr, i32, ptr, ...) @av_log(ptr noundef nonnull %0, i32 noundef 32, ptr noundef nonnull @.str.5, i32 noundef %17) #7
  %89 = load ptr, ptr %5, align 8, !tbaa !27
  %90 = add nsw i32 %.060, -1
  %91 = zext nneg i32 %90 to i64
  %92 = tail call i64 @avio_skip(ptr noundef %89, i64 noundef %91) #7
  br label %93

93:                                               ; preds = %88, %84, %80, %76, %58, %56, %36, %28, %18
  %.161 = phi i32 [ 0, %88 ], [ %87, %84 ], [ %83, %80 ], [ %79, %76 ], [ %61, %58 ], [ %57, %56 ], [ %43, %36 ], [ %35, %28 ], [ %27, %18 ]
  %.159 = phi i64 [ %92, %88 ], [ %86, %84 ], [ %82, %80 ], [ %78, %76 ], [ %60, %58 ], [ %.058, %56 ], [ %38, %36 ], [ %30, %28 ], [ %20, %18 ]
  %94 = icmp sgt i64 %.159, -1
  br i1 %94, label %13, label %.split.loop.exit64, !llvm.loop !112

.split.loop.exit64:                               ; preds = %93
  %95 = trunc i64 %.159 to i32
  br label %.split.loop.exit

.split.loop.exit:                                 ; preds = %13, %.split.loop.exit64
  %.2 = phi i32 [ %95, %.split.loop.exit64 ], [ 0, %13 ]
  ret i32 %.2
}